; Function Attrs: mustprogress uwtable
define dso_local void @_ZN30cmInstallSubdirectoryGenerator12CheckCMP0082ERbS0_(ptr noundef nonnull align 8 dereferenceable(248) %0, ptr nocapture noundef nonnull writeonly align 1 dereferenceable(1) %1, ptr nocapture nonnull readnone align 1 %2) unnamed_addr #3 align 2 {
  %4 = load ptr, ptr %0, align 8
  %5 = getelementptr inbounds i8, ptr %4, i64 64
  %6 = load ptr, ptr %5, align 8
  %7 = tail call noundef zeroext i1 %6(ptr noundef nonnull align 8 dereferenceable(248) %0)
  br i1 %7, label %8, label %9

8:                                                ; preds = %3
  store i8 1, ptr %1, align 1
  br label %9

9:                                                ; preds = %8, %3
  ret void
}